target datalayout = "e-m:e-p270:32:32-p271:32:32-p272:64:64-i64:64-i128:128-f80:128-n8:16:32:64-S128"
target triple = "x86_64-unknown-linux-gnu"

; Function Attrs: mustprogress uwtable
define void @_ZN8QuantLib13SVDDFwdRatePc15setInitialStateERKNS_10CurveStateE(ptr noundef nonnull align 8 dereferenceable(704) %this, ptr noundef nonnull align 8 dereferenceable(64) %cs) unnamed_addr #3 align 2 {
entry:
  %this.addr = alloca ptr, align 8
  %cs.addr = alloca ptr, align 8
  store ptr %this, ptr %this.addr, align 8, !tbaa !3
  store ptr %cs, ptr %cs.addr, align 8, !tbaa !3
  %this1 = load ptr, ptr %this.addr, align 8
  %0 = load ptr, ptr %cs.addr, align 8, !tbaa !3
  %vtable = load ptr, ptr %0, align 8, !tbaa !9
  %vfn = getelementptr inbounds ptr, ptr %vtable, i64 8
  %1 = load ptr, ptr %vfn, align 8
  %call = call noundef nonnull align 8 dereferenceable(24) ptr %1(ptr noundef nonnull align 8 dereferenceable(64) %0)
  call void @_ZN8QuantLib13SVDDFwdRatePc11setForwardsERKSt6vectorIdSaIdEE(ptr noundef nonnull align 8 dereferenceable(704) %this1, ptr noundef nonnull align 8 dereferenceable(24) %call)
  ret void
}